target datalayout = "e-m:e-p270:32:32-p271:32:32-p272:64:64-i64:64-i128:128-f80:128-n8:16:32:64-S128"
target triple = "x86_64-pc-linux-gnu"

%struct.lv_ll_t = type { i32, ptr, ptr }
%struct.lv_sdl_window_t = type { ptr, ptr, ptr, ptr, ptr, ptr, ptr, ptr, ptr, i64, float, i8 }
%struct._lv_display_t = type { i32, i32, i32, i32, i32, i32, i32, ptr, ptr, ptr, ptr, ptr, i32, i32, i8, i32, i16, i32, [32 x %struct.lv_area_t], [32 x i8], i32, i32, %struct.lv_ll_t, %struct._lv_draw_buf_t, %struct._lv_draw_buf_t, ptr, ptr, ptr, ptr, ptr, ptr, ptr, ptr, ptr, ptr, i32, i8, ptr, ptr, %struct.lv_event_list_t, i8, ptr, ptr, i32, %struct.lv_area_t }
%struct._lv_draw_buf_t = type { %struct.lv_image_header_t, i32, ptr, ptr, ptr }
%struct.lv_image_header_t = type <{ i64, i32 }>
%struct.lv_event_list_t = type { %struct._lv_array_t, i8 }
%struct._lv_array_t = type { ptr, i32, i32, i32, i8 }
%struct.lv_area_t = type { i32, i32, i32, i32 }

@inited = internal global i8 0, align 1
@event_handler_timer = internal global ptr null, align 8
@.str = private unnamed_addr constant [15 x i8] c"LVGL Simulator\00", align 1

; Function Attrs: nounwind uwtable
define internal void @sdl_draw_buf_free(ptr noundef %0) #0 {
  %2 = alloca ptr, align 8
  store ptr %0, ptr %2, align 8, !tbaa !11
  %3 = load ptr, ptr %2, align 8, !tbaa !11
  call void @free(ptr noundef %3) #8
  ret void
}

; Function Attrs: nounwind uwtable
define internal ptr @sdl_draw_buf_realloc_aligned(ptr noundef %0, i64 noundef %1) #0 {
  %3 = alloca ptr, align 8
  %4 = alloca i64, align 8
  store ptr %0, ptr %3, align 8, !tbaa !11
  store i64 %1, ptr %4, align 8, !tbaa !52
  %5 = load ptr, ptr %3, align 8, !tbaa !11
  %6 = icmp ne ptr %5, null
  br i1 %6, label %7, label %9

7:                                                ; preds = %2
  %8 = load ptr, ptr %3, align 8, !tbaa !11
  call void @sdl_draw_buf_free(ptr noundef %8)
  br label %9

9:                                                ; preds = %7, %2
  %10 = load i64, ptr %4, align 8, !tbaa !52
  %11 = add i64 %10, 7
  %12 = and i64 %11, -8
  %13 = call noalias align 8 ptr @aligned_alloc(i64 noundef 8, i64 noundef %12) #10
  ret ptr %13
}

; Function Attrs: inlinehint nounwind uwtable
define internal i32 @sdl_render_mode() #3 {
  ret i32 1
}

; Function Attrs: nounwind uwtable
define internal void @window_create(ptr noundef %0) #0 {
  %2 = alloca ptr, align 8
  %3 = alloca ptr, align 8
  %4 = alloca i32, align 4
  %5 = alloca i32, align 4
  %6 = alloca i32, align 4
  %7 = alloca i32, align 4
  store ptr %0, ptr %2, align 8, !tbaa !11
  call void @llvm.lifetime.start.p0(i64 8, ptr %3) #8
  %8 = load ptr, ptr %2, align 8, !tbaa !11
  %9 = call ptr @lv_display_get_driver_data(ptr noundef %8)
  store ptr %9, ptr %3, align 8, !tbaa !11
  %10 = load ptr, ptr %3, align 8, !tbaa !11
  %11 = getelementptr inbounds nuw %struct.lv_sdl_window_t, ptr %10, i32 0, i32 10
  store float 1.000000e+00, ptr %11, align 8, !tbaa !33
  call void @llvm.lifetime.start.p0(i64 4, ptr %4) #8
  store i32 32, ptr %4, align 4, !tbaa !3
  call void @llvm.lifetime.start.p0(i64 4, ptr %5) #8
  %12 = load ptr, ptr %2, align 8, !tbaa !11
  %13 = getelementptr inbounds nuw %struct._lv_display_t, ptr %12, i32 0, i32 0
  %14 = load i32, ptr %13, align 8, !tbaa !18
  %15 = sitofp i32 %14 to float
  %16 = load ptr, ptr %3, align 8, !tbaa !11
  %17 = getelementptr inbounds nuw %struct.lv_sdl_window_t, ptr %16, i32 0, i32 10
  %18 = load float, ptr %17, align 8, !tbaa !33
  %19 = fmul float %15, %18
  %20 = fptosi float %19 to i32
  store i32 %20, ptr %5, align 4, !tbaa !3
  call void @llvm.lifetime.start.p0(i64 4, ptr %6) #8
  %21 = load ptr, ptr %2, align 8, !tbaa !11
  %22 = getelementptr inbounds nuw %struct._lv_display_t, ptr %21, i32 0, i32 1
  %23 = load i32, ptr %22, align 4, !tbaa !28
  %24 = sitofp i32 %23 to float
  %25 = load ptr, ptr %3, align 8, !tbaa !11
  %26 = getelementptr inbounds nuw %struct.lv_sdl_window_t, ptr %25, i32 0, i32 10
  %27 = load float, ptr %26, align 8, !tbaa !33
  %28 = fmul float %24, %27
  %29 = fptosi float %28 to i32
  store i32 %29, ptr %6, align 4, !tbaa !3
  %30 = load i32, ptr %5, align 4, !tbaa !3
  %31 = load i32, ptr %6, align 4, !tbaa !3
  %32 = load i32, ptr %4, align 4, !tbaa !3
  %33 = call ptr @SDL_CreateWindow(ptr noundef @.str, i32 noundef 536805376, i32 noundef 536805376, i32 noundef %30, i32 noundef %31, i32 noundef %32)
  %34 = load ptr, ptr %3, align 8, !tbaa !11
  %35 = getelementptr inbounds nuw %struct.lv_sdl_window_t, ptr %34, i32 0, i32 0
  store ptr %33, ptr %35, align 8, !tbaa !45
  %36 = load ptr, ptr %3, align 8, !tbaa !11
  %37 = getelementptr inbounds nuw %struct.lv_sdl_window_t, ptr %36, i32 0, i32 0
  %38 = load ptr, ptr %37, align 8, !tbaa !45
  %39 = call ptr @SDL_CreateRenderer(ptr noundef %38, i32 noundef -1, i32 noundef 2)
  %40 = load ptr, ptr %3, align 8, !tbaa !11
  %41 = getelementptr inbounds nuw %struct.lv_sdl_window_t, ptr %40, i32 0, i32 1
  store ptr %39, ptr %41, align 8, !tbaa !44
  %42 = load ptr, ptr %2, align 8, !tbaa !11
  call void @texture_resize(ptr noundef %42)
  call void @llvm.lifetime.start.p0(i64 4, ptr %7) #8
  %43 = load ptr, ptr %2, align 8, !tbaa !11
  %44 = call i32 @lv_display_get_color_format(ptr noundef %43)
  %45 = call zeroext i8 @lv_color_format_get_size(i32 noundef %44)
  %46 = zext i8 %45 to i32
  store i32 %46, ptr %7, align 4, !tbaa !3
  %47 = load ptr, ptr %3, align 8, !tbaa !11
  %48 = getelementptr inbounds nuw %struct.lv_sdl_window_t, ptr %47, i32 0, i32 3
  %49 = load ptr, ptr %48, align 8, !tbaa !26
  %50 = load i32, ptr %5, align 4, !tbaa !3
  %51 = load i32, ptr %6, align 4, !tbaa !3
  %52 = mul nsw i32 %50, %51
  %53 = load i32, ptr %7, align 4, !tbaa !3
  %54 = mul i32 %52, %53
  %55 = zext i32 %54 to i64
  call void @lv_memset(ptr noundef %49, i8 noundef zeroext -1, i64 noundef %55)
  %56 = load ptr, ptr %3, align 8, !tbaa !11
  %57 = getelementptr inbounds nuw %struct.lv_sdl_window_t, ptr %56, i32 0, i32 0
  %58 = load ptr, ptr %57, align 8, !tbaa !45
  %59 = load i32, ptr %5, align 4, !tbaa !3
  %60 = load i32, ptr %6, align 4, !tbaa !3
  call void @SDL_SetWindowSize(ptr noundef %58, i32 noundef %59, i32 noundef %60)
  %61 = load ptr, ptr %2, align 8, !tbaa !11
  call void @texture_resize(ptr noundef %61)
  call void @llvm.lifetime.end.p0(i64 4, ptr %7) #8
  call void @llvm.lifetime.end.p0(i64 4, ptr %6) #8
  call void @llvm.lifetime.end.p0(i64 4, ptr %5) #8
  call void @llvm.lifetime.end.p0(i64 4, ptr %4) #8
  call void @llvm.lifetime.end.p0(i64 8, ptr %3) #8
  ret void
}

; Function Attrs: nounwind uwtable
define ptr @lv_sdl_window_create(i32 noundef %0, i32 noundef %1) #0 {
  %3 = alloca ptr, align 8
  %4 = alloca i32, align 4
  %5 = alloca i32, align 4
  %6 = alloca ptr, align 8
  %7 = alloca i32, align 4
  %8 = alloca ptr, align 8
  %9 = alloca i32, align 4
  store i32 %0, ptr %4, align 4, !tbaa !3
  store i32 %1, ptr %5, align 4, !tbaa !3
  %10 = load i8, ptr @inited, align 1, !tbaa !7, !range !9, !noundef !10
  %11 = trunc i8 %10 to i1
  br i1 %11, label %15, label %12

12:                                               ; preds = %2
  %13 = call i32 @SDL_Init(i32 noundef 32)
  call void @SDL_StartTextInput()
  %14 = call ptr @lv_timer_create(ptr noundef @sdl_event_handler, i32 noundef 5, ptr noundef null)
  store ptr %14, ptr @event_handler_timer, align 8, !tbaa !11
  call void @lv_tick_set_cb(ptr noundef @SDL_GetTicks)
  store i8 1, ptr @inited, align 1, !tbaa !7
  br label %15

15:                                               ; preds = %12, %2
  call void @llvm.lifetime.start.p0(i64 8, ptr %6) #8
  %16 = call ptr @lv_malloc_zeroed(i64 noundef 88)
  store ptr %16, ptr %6, align 8, !tbaa !11
  br label %17

17:                                               ; preds = %15
  %18 = load ptr, ptr %6, align 8, !tbaa !11
  %19 = icmp ne ptr %18, null
  br i1 %19, label %26, label %20

20:                                               ; preds = %17
  br label %21

21:                                               ; preds = %20
  br label %22

22:                                               ; preds = %21
  br label %23

23:                                               ; preds = %22
  br label %24

24:                                               ; preds = %25, %23
  br label %25

25:                                               ; preds = %24
  br label %24

26:                                               ; preds = %17
  br label %27

27:                                               ; preds = %26
  br label %28

28:                                               ; preds = %27
  %29 = load ptr, ptr %6, align 8, !tbaa !11
  %30 = icmp eq ptr %29, null
  br i1 %30, label %31, label %32

31:                                               ; preds = %28
  store ptr null, ptr %3, align 8
  store i32 1, ptr %7, align 4
  br label %83

32:                                               ; preds = %28
  call void @llvm.lifetime.start.p0(i64 8, ptr %8) #8
  %33 = load i32, ptr %4, align 4, !tbaa !3
  %34 = load i32, ptr %5, align 4, !tbaa !3
  %35 = call ptr @lv_display_create(i32 noundef %33, i32 noundef %34)
  store ptr %35, ptr %8, align 8, !tbaa !11
  %36 = load ptr, ptr %8, align 8, !tbaa !11
  %37 = icmp eq ptr %36, null
  br i1 %37, label %38, label %40

38:                                               ; preds = %32
  %39 = load ptr, ptr %6, align 8, !tbaa !11
  call void @lv_free(ptr noundef %39)
  store ptr null, ptr %3, align 8
  store i32 1, ptr %7, align 4
  br label %82

40:                                               ; preds = %32
  %41 = load ptr, ptr %8, align 8, !tbaa !11
  %42 = load ptr, ptr %8, align 8, !tbaa !11
  call void @lv_display_add_event_cb(ptr noundef %41, ptr noundef @release_disp_cb, i32 noundef 41, ptr noundef %42)
  %43 = load ptr, ptr %8, align 8, !tbaa !11
  %44 = load ptr, ptr %6, align 8, !tbaa !11
  call void @lv_display_set_driver_data(ptr noundef %43, ptr noundef %44)
  %45 = load ptr, ptr %8, align 8, !tbaa !11
  call void @window_create(ptr noundef %45)
  %46 = load ptr, ptr %8, align 8, !tbaa !11
  call void @lv_display_set_flush_cb(ptr noundef %46, ptr noundef @flush_cb)
  %47 = call i32 @sdl_render_mode()
  %48 = icmp eq i32 %47, 0
  br i1 %48, label %49, label %60

49:                                               ; preds = %40
  %50 = call ptr @sdl_draw_buf_realloc_aligned(ptr noundef null, i64 noundef 32768)
  %51 = load ptr, ptr %6, align 8, !tbaa !11
  %52 = getelementptr inbounds nuw %struct.lv_sdl_window_t, ptr %51, i32 0, i32 6
  store ptr %50, ptr %52, align 8, !tbaa !13
  %53 = load ptr, ptr %8, align 8, !tbaa !11
  %54 = load ptr, ptr %6, align 8, !tbaa !11
  %55 = getelementptr inbounds nuw %struct.lv_sdl_window_t, ptr %54, i32 0, i32 6
  %56 = load ptr, ptr %55, align 8, !tbaa !13
  %57 = load ptr, ptr %6, align 8, !tbaa !11
  %58 = getelementptr inbounds nuw %struct.lv_sdl_window_t, ptr %57, i32 0, i32 7
  %59 = load ptr, ptr %58, align 8, !tbaa !17
  call void @lv_display_set_buffers(ptr noundef %53, ptr noundef %56, ptr noundef %59, i32 noundef 32768, i32 noundef 0)
  br label %79

60:                                               ; preds = %40
  call void @llvm.lifetime.start.p0(i64 4, ptr %9) #8
  %61 = load ptr, ptr %8, align 8, !tbaa !11
  %62 = getelementptr inbounds nuw %struct._lv_display_t, ptr %61, i32 0, i32 0
  %63 = load i32, ptr %62, align 8, !tbaa !18
  %64 = load ptr, ptr %8, align 8, !tbaa !11
  %65 = call i32 @lv_display_get_color_format(ptr noundef %64)
  %66 = call i32 @lv_draw_buf_width_to_stride(i32 noundef %63, i32 noundef %65)
  store i32 %66, ptr %9, align 4, !tbaa !3
  %67 = load ptr, ptr %8, align 8, !tbaa !11
  %68 = load ptr, ptr %6, align 8, !tbaa !11
  %69 = getelementptr inbounds nuw %struct.lv_sdl_window_t, ptr %68, i32 0, i32 3
  %70 = load ptr, ptr %69, align 8, !tbaa !26
  %71 = load ptr, ptr %6, align 8, !tbaa !11
  %72 = getelementptr inbounds nuw %struct.lv_sdl_window_t, ptr %71, i32 0, i32 4
  %73 = load ptr, ptr %72, align 8, !tbaa !27
  %74 = load i32, ptr %9, align 4, !tbaa !3
  %75 = load ptr, ptr %8, align 8, !tbaa !11
  %76 = getelementptr inbounds nuw %struct._lv_display_t, ptr %75, i32 0, i32 1
  %77 = load i32, ptr %76, align 4, !tbaa !28
  %78 = mul i32 %74, %77
  call void @lv_display_set_buffers(ptr noundef %67, ptr noundef %70, ptr noundef %73, i32 noundef %78, i32 noundef 1)
  call void @llvm.lifetime.end.p0(i64 4, ptr %9) #8
  br label %79

79:                                               ; preds = %60, %49
  %80 = load ptr, ptr %8, align 8, !tbaa !11
  call void @lv_display_add_event_cb(ptr noundef %80, ptr noundef @res_chg_event_cb, i32 noundef 54, ptr noundef null)
  call void @sdl_event_handler(ptr noundef null)
  %81 = load ptr, ptr %8, align 8, !tbaa !11
  store ptr %81, ptr %3, align 8
  store i32 1, ptr %7, align 4
  br label %82

82:                                               ; preds = %79, %38
  call void @llvm.lifetime.end.p0(i64 8, ptr %8) #8
  br label %83

83:                                               ; preds = %82, %31
  call void @llvm.lifetime.end.p0(i64 8, ptr %6) #8
  %84 = load ptr, ptr %3, align 8
  ret ptr %84
}