; Function Attrs: nounwind uwtable
define ptr @lv_sdl_window_create(i32 noundef %0, i32 noundef %1) local_unnamed_addr #0 {
  %.b27 = load i1, ptr @inited, align 1
  br i1 %.b27, label %6, label %3

3:                                                ; preds = %2
  %4 = tail call i32 @SDL_Init(i32 noundef 32) #6
  tail call void @SDL_StartTextInput() #6
  %5 = tail call ptr @lv_timer_create(ptr noundef nonnull @sdl_event_handler, i32 noundef 5, ptr noundef null) #6
  store ptr %5, ptr @event_handler_timer, align 8, !tbaa !3
  tail call void @lv_tick_set_cb(ptr noundef nonnull @SDL_GetTicks) #6
  store i1 true, ptr @inited, align 1
  br label %6

6:                                                ; preds = %3, %2
  %7 = tail call ptr @lv_malloc_zeroed(i64 noundef 88) #6
  %.not = icmp eq ptr %7, null
  br i1 %.not, label %.preheader, label %8

.preheader:                                       ; preds = %6, %.preheader
  br label %.preheader

8:                                                ; preds = %6
  %9 = tail call ptr @lv_display_create(i32 noundef %0, i32 noundef %1) #6
  %10 = icmp eq ptr %9, null
  br i1 %10, label %11, label %12

11:                                               ; preds = %8
  tail call void @lv_free(ptr noundef nonnull %7) #6
  br label %43

12:                                               ; preds = %8
  tail call void @lv_display_add_event_cb(ptr noundef nonnull %9, ptr noundef nonnull @release_disp_cb, i32 noundef 41, ptr noundef nonnull %9) #6
  tail call void @lv_display_set_driver_data(ptr noundef nonnull %9, ptr noundef nonnull %7) #6
  %13 = tail call ptr @lv_display_get_driver_data(ptr noundef nonnull %9) #6
  %14 = getelementptr inbounds nuw i8, ptr %13, i64 80
  store float 1.000000e+00, ptr %14, align 8, !tbaa !7
  %15 = load i32, ptr %9, align 8, !tbaa !11
  %16 = sitofp i32 %15 to float
  %17 = fptosi float %16 to i32
  %18 = getelementptr inbounds nuw i8, ptr %9, i64 4
  %19 = load i32, ptr %18, align 4, !tbaa !21
  %20 = sitofp i32 %19 to float
  %21 = fptosi float %20 to i32
  %22 = tail call ptr @SDL_CreateWindow(ptr noundef nonnull @.str, i32 noundef 536805376, i32 noundef 536805376, i32 noundef %17, i32 noundef %21, i32 noundef 32) #6
  store ptr %22, ptr %13, align 8, !tbaa !22
  %23 = tail call ptr @SDL_CreateRenderer(ptr noundef %22, i32 noundef -1, i32 noundef 2) #6
  %24 = getelementptr inbounds nuw i8, ptr %13, i64 8
  store ptr %23, ptr %24, align 8, !tbaa !23
  tail call fastcc void @texture_resize(ptr noundef nonnull %9)
  %25 = tail call i32 @lv_display_get_color_format(ptr noundef nonnull %9) #6
  %26 = tail call zeroext i8 @lv_color_format_get_size(i32 noundef %25) #6
  %27 = zext i8 %26 to i32
  %28 = getelementptr inbounds nuw i8, ptr %13, i64 24
  %29 = load ptr, ptr %28, align 8, !tbaa !24
  %30 = mul nsw i32 %21, %17
  %31 = mul i32 %30, %27
  %32 = zext i32 %31 to i64
  tail call void @lv_memset(ptr noundef %29, i8 noundef zeroext -1, i64 noundef %32) #6
  %33 = load ptr, ptr %13, align 8, !tbaa !22
  tail call void @SDL_SetWindowSize(ptr noundef %33, i32 noundef %17, i32 noundef %21) #6
  tail call fastcc void @texture_resize(ptr noundef nonnull %9)
  tail call void @lv_display_set_flush_cb(ptr noundef nonnull %9, ptr noundef nonnull @flush_cb) #6
  %34 = load i32, ptr %9, align 8, !tbaa !11
  %35 = tail call i32 @lv_display_get_color_format(ptr noundef nonnull %9) #6
  %36 = tail call i32 @lv_draw_buf_width_to_stride(i32 noundef %34, i32 noundef %35) #6
  %37 = getelementptr inbounds nuw i8, ptr %7, i64 24
  %38 = load ptr, ptr %37, align 8, !tbaa !24
  %39 = getelementptr inbounds nuw i8, ptr %7, i64 32
  %40 = load ptr, ptr %39, align 8, !tbaa !25
  %41 = load i32, ptr %18, align 4, !tbaa !21
  %42 = mul i32 %41, %36
  tail call void @lv_display_set_buffers(ptr noundef nonnull %9, ptr noundef %38, ptr noundef %40, i32 noundef %42, i32 noundef 1) #6
  tail call void @lv_display_add_event_cb(ptr noundef nonnull %9, ptr noundef nonnull @res_chg_event_cb, i32 noundef 54, ptr noundef null) #6
  tail call void @sdl_event_handler(ptr poison)
  br label %43

43:                                               ; preds = %11, %12
  ret ptr %9
}